(dp0
S'token'
p1
Vcljwt.eyJhbGciOiJIUzI1NiIsImV4cCI6MTU3ODc2MjQ1NzI1MiwidHlwIjoiSldUIiwiaWF0IjoxNTc2MTcwNDU3MjUyLCJ2ZXJzaW9uIjoiVjEifQ.eyJjbGp3dC5wYXlsb2FkTWFwIjoick8wQUJYVnlBQUpiUXF6ekYvZ0dDRlRnQWdBQWVIQUFBQU1RN2lCMnVGSUJadHR4YWxPTjRMYVBLOHNiS0hWc1BaUEV2eGlBNEtLaHhzd1lJdDhDc1lTUU9WWnpJd1Uxd3ZVWDdtNDVzTnZvclpvM2pJeEE4anhhU0FZWEFvQVBXUkpQOU1xT3hNQUlFMkpsbnRGaWNjREtSTkVJVklzcGswVmpGMDJUVXNKMU05Ukp4NHlDT1VNVklhRjFzWGU0VDE0dVljaGZLMjllejNQaTBHU3Nrb0VkanZkN3pUVU9uVFRRQTlnOUYwcHB6SjNhVFBhTUU2YW5IN01namo0R3pYTmtLQXpsQ096UmFYVzZQTlBONVZhNm0xaW1jTWNXcStrN09pa1Y5d1NtUU9vclY1OUZmQVRIUzUxZFphYmMzNHlRMllPSEdTNm1uRkdYcnBVZThoWFB4WEpQVzM3ajA1c2hCU2lrV1U0bE9MYnFFNXNiU1U1bVZ5ZjdPOVRFMnVLTGhxRkJzSEd5OW5ZMkp4RkFUYmZkbmlqVmR5czZTMUNBRC94VlFuQit6M2k5NExFWThhWWErR2ZxUnpRTUF2Y00zN1I0M2Mzb1hjRWtNSjl5cVhPZ1NKbWZvWEZkbWpsa2ZlWW5OYkk2YzFnQ0pBNTFTRGkxTGs1ZzlsYmdoT3psTzg3QUJ4K0xBS0JLOUZocTlEWm9Tb1BjQU1acGZuYTV4NnFyZEd2R2Fxc1JMWDhhSm96WjlRb0lqbHA4MGo1S3MyOXVmRTV5aFhhSUpXSGUwL1B5SndXbTM3VUt6YU5kemcwY215L1ovZlBFS2thRm9ia0xSeUdaNG13QUd2dExZc1NVOGtIMHZRay9lZTdkbFlqOU5rUmRzOFhEOHpmbSt1NFFSYkNkVWN4ejRuSVdyVWRhTU82L25SeC9RR2hhZ1lnQVJ3Z2svb1kxamN3eHFacHJOT1NrZnlXZ3VmWWk1L2xXa05oazdvWmhwQXV3M0dmQU1nKzdJR2pnM0c3V0VSTVVRV3RyQXdPSUlFMGZET0VGMlFHcUR6U0tFOTF1Qk9wUWZYS0pnZWhYc3haekk1K1g5bzlaSnFoVHdhREg4bGVDVDhPL3l2WmRwNTdzRVR1bWRyODd1RGVkTngxcU5IdGN4L0gyZFhiYWhIYW01N3NEcXF0OFo1dkVoWWVWZ21vZ1FJd25aU1lLZ3dSQWErOXpBYVFTdllJR1VZZWticU9rdnJDZVV1UnlPMFlXekFXWFRwSWNiQlVUMjBYWGhaeHM2VXM5dzNCNkkwaGNoOTQzYzVFMUR5Q1p4SllNR3lyT1BuZUtJR29PT0JOcHUxZ2g0Q1d6d2ZPZXNHSmh6RnYvN0tZSk1EMm9taDBadmpINWtJdkVpUHZ6VDAySjd4ZnBadkl4Uk1kVFF1aG5ZdDBzVnc9PSIsImlzcyI6ImNsZWFycGxheSJ9.MmAiFEaNQy2FB0y9zVIO-1EUmuJWzLXo3dnIWumHQW8
p2
sS'devid'
p3
V9a52dec5-f516-4d40-89f6-2392faae6d85
p4
s.